; Function Attrs: mustprogress uwtable
define noundef nonnull align 8 dereferenceable(40) ptr @_ZN4toml2v35array2atEm(ptr noundef nonnull readonly align 8 captures(none) dereferenceable(64) %0, i64 noundef %1) local_unnamed_addr #0 align 2 {
  %3 = getelementptr inbounds nuw i8, ptr %0, i64 40
  %4 = getelementptr inbounds nuw i8, ptr %0, i64 48
  %5 = load ptr, ptr %4, align 8, !tbaa !175
  %6 = load ptr, ptr %3, align 8, !tbaa !177
  %7 = ptrtoint ptr %5 to i64
  %8 = ptrtoint ptr %6 to i64
  %9 = sub i64 %7, %8
  %10 = ashr exact i64 %9, 3
  %.not.i.i = icmp ult i64 %1, %10
  br i1 %.not.i.i, label %_ZNSt6vectorISt10unique_ptrIN4toml2v34nodeESt14default_deleteIS3_EESaIS6_EE2atEm.exit, label %11

11:                                               ; preds = %2
  tail call void (ptr, ...) @_ZSt24__throw_out_of_range_fmtPKcz(ptr noundef nonnull @.str.218, i64 noundef %1, i64 noundef %10) #54
  unreachable

_ZNSt6vectorISt10unique_ptrIN4toml2v34nodeESt14default_deleteIS3_EESaIS6_EE2atEm.exit: ; preds = %2
  %12 = getelementptr inbounds nuw %"class.std::unique_ptr", ptr %6, i64 %1
  %13 = load ptr, ptr %12, align 8, !tbaa !178
  ret ptr %13
}